; Function Attrs: uwtable
define noundef double @_ZThn8_NK8QuantLib19EulerDiscretization5driftERKNS_19StochasticProcess1DEddd(ptr nocapture readnone %this, ptr noundef nonnull align 8 dereferenceable(144) %process, double noundef %t0, double noundef %x0, double noundef %dt) unnamed_addr #4 align 2 {
entry:
  %vtable.i = load ptr, ptr %process, align 8, !tbaa !3
  %vfn.i = getelementptr inbounds i8, ptr %vtable.i, i64 128
  %0 = load ptr, ptr %vfn.i, align 8
  %call.i = tail call noundef double %0(ptr noundef nonnull align 8 dereferenceable(144) %process, double noundef %t0, double noundef %x0)
  %mul.i = fmul double %dt, %call.i
  ret double %mul.i
}